; Function Attrs: nounwind uwtable
define hidden void @event_changelist_freemem_(ptr noundef captures(none) initializes((8, 16)) %0) local_unnamed_addr #1 {
  %2 = load ptr, ptr %0, align 8
  %.not = icmp eq ptr %2, null
  br i1 %.not, label %4, label %3

3:                                                ; preds = %1
  tail call void @event_mm_free_(ptr noundef nonnull %2) #7
  br label %4

4:                                                ; preds = %3, %1
  tail call void @llvm.memset.p0.i64(ptr noundef nonnull align 8 dereferenceable(16) %0, i8 0, i64 16, i1 false)
  ret void
}